; Function Attrs: mustprogress uwtable
define hidden void @_ZN7datalog25mk_interp_tail_simplifier13simplify_exprEP3appR7obj_refI4expr11ast_managerE(ptr noundef nonnull readonly align 8 captures(none) dereferenceable(424) %0, ptr noundef %1, ptr noundef nonnull align 8 dereferenceable(16) %2) local_unnamed_addr #3 align 2 personality ptr @__gxx_personality_v0 {
  %4 = alloca %class.obj_ref.33, align 8
  call void @llvm.lifetime.start.p0(i64 16, ptr nonnull %4) #20
  %5 = getelementptr inbounds nuw i8, ptr %0, i64 24
  %6 = load ptr, ptr %5, align 8, !tbaa !293
  store ptr null, ptr %4, align 8, !tbaa !80
  %7 = getelementptr inbounds nuw i8, ptr %4, i64 8
  store ptr %6, ptr %7, align 8, !tbaa !82
  %8 = getelementptr inbounds nuw i8, ptr %0, i64 40
  %9 = load ptr, ptr %8, align 8, !tbaa !308
  invoke void @_ZN11th_rewriterclEP4exprR7obj_refIS0_11ast_managerE(ptr noundef nonnull align 8 dereferenceable(16) %9, ptr noundef %1, ptr noundef nonnull align 8 dereferenceable(16) %4)
          to label %10 unwind label %29

10:                                               ; preds = %3
  %11 = getelementptr inbounds nuw i8, ptr %0, i64 416
  %12 = load ptr, ptr %11, align 8, !tbaa !299
  %13 = load ptr, ptr %4, align 8, !tbaa !80
  %14 = getelementptr inbounds nuw i8, ptr %12, i64 496
  invoke void @_ZN12rewriter_tplIN7datalog25mk_interp_tail_simplifier14normalizer_cfgEEclEP4exprR7obj_refIS4_11ast_managerERS6_I3appS7_E(ptr noundef nonnull align 8 dereferenceable(536) %12, ptr noundef %13, ptr noundef nonnull align 8 dereferenceable(16) %2, ptr noundef nonnull align 8 dereferenceable(16) %14)
          to label %_ZN12rewriter_tplIN7datalog25mk_interp_tail_simplifier14normalizer_cfgEEclEP4exprR7obj_refIS4_11ast_managerE.exit unwind label %29

_ZN12rewriter_tplIN7datalog25mk_interp_tail_simplifier14normalizer_cfgEEclEP4exprR7obj_refIS4_11ast_managerE.exit: ; preds = %10
  %15 = load ptr, ptr %8, align 8, !tbaa !308
  %16 = load ptr, ptr %2, align 8, !tbaa !80
  invoke void @_ZN11th_rewriterclEP4exprR7obj_refIS0_11ast_managerE(ptr noundef nonnull align 8 dereferenceable(16) %15, ptr noundef %16, ptr noundef nonnull align 8 dereferenceable(16) %2)
          to label %17 unwind label %29

17:                                               ; preds = %_ZN12rewriter_tplIN7datalog25mk_interp_tail_simplifier14normalizer_cfgEEclEP4exprR7obj_refIS4_11ast_managerE.exit
  %18 = load ptr, ptr %4, align 8, !tbaa !80
  %.not.i.i = icmp eq ptr %18, null
  br i1 %.not.i.i, label %_ZN7obj_refI4expr11ast_managerED2Ev.exit, label %19

19:                                               ; preds = %17
  %20 = load ptr, ptr %7, align 8, !tbaa !83
  %21 = getelementptr inbounds nuw i8, ptr %18, i64 8
  %22 = load i32, ptr %21, align 4, !tbaa !84
  %23 = add i32 %22, -1
  store i32 %23, ptr %21, align 4, !tbaa !84
  %24 = icmp eq i32 %23, 0
  br i1 %24, label %25, label %_ZN7obj_refI4expr11ast_managerED2Ev.exit

25:                                               ; preds = %19
  invoke void @_ZN11ast_manager11delete_nodeEP3ast(ptr noundef nonnull align 8 dereferenceable(976) %20, ptr noundef nonnull %18)
          to label %_ZN7obj_refI4expr11ast_managerED2Ev.exit unwind label %26

26:                                               ; preds = %25
  %27 = landingpad { ptr, i32 }
          catch ptr null
  %28 = extractvalue { ptr, i32 } %27, 0
  call void @__clang_call_terminate(ptr %28) #21
  unreachable

_ZN7obj_refI4expr11ast_managerED2Ev.exit:         ; preds = %17, %19, %25
  call void @llvm.lifetime.end.p0(i64 16, ptr nonnull %4) #20
  ret void

29:                                               ; preds = %10, %_ZN12rewriter_tplIN7datalog25mk_interp_tail_simplifier14normalizer_cfgEEclEP4exprR7obj_refIS4_11ast_managerE.exit, %3
  %30 = landingpad { ptr, i32 }
          cleanup
  call void @_ZN7obj_refI4expr11ast_managerED2Ev(ptr noundef nonnull align 8 dereferenceable(16) %4) #20
  call void @llvm.lifetime.end.p0(i64 16, ptr nonnull %4) #20
  resume { ptr, i32 } %30
}